; Function Attrs: nofree nounwind memory(readwrite, argmem: read) uwtable
define noalias noundef ptr @Abc_NtkCollectLatchValuesStr(ptr noundef readonly captures(none) %0) local_unnamed_addr #4 {
  %2 = getelementptr i8, ptr %0, i64 128
  %.val23 = load i32, ptr %2, align 8, !tbaa !28
  %3 = add nsw i32 %.val23, 1
  %4 = sext i32 %3 to i64
  %5 = tail call noalias ptr @malloc(i64 noundef %4) #13
  %6 = getelementptr inbounds nuw i8, ptr %0, i64 80
  %7 = load ptr, ptr %6, align 8, !tbaa !32
  %8 = getelementptr i8, ptr %7, i64 4
  %.val21 = load i32, ptr %8, align 4, !tbaa !33
  %9 = icmp sgt i32 %.val21, 0
  br i1 %9, label %.lr.ph, label %.critedge

.lr.ph:                                           ; preds = %1
  %10 = getelementptr i8, ptr %7, i64 8
  %.val22.val = load ptr, ptr %10, align 8, !tbaa !29
  %wide.trip.count = zext nneg i32 %.val21 to i64
  br label %11

11:                                               ; preds = %.lr.ph, %20
  %indvars.iv = phi i64 [ 0, %.lr.ph ], [ %indvars.iv.next, %20 ]
  %12 = getelementptr inbounds nuw ptr, ptr %.val22.val, i64 %indvars.iv
  %13 = load ptr, ptr %12, align 8, !tbaa !31
  %14 = getelementptr i8, ptr %13, i64 20
  %.val = load i32, ptr %14, align 4
  %15 = and i32 %.val, 15
  %.not = icmp eq i32 %15, 8
  br i1 %.not, label %16, label %20

16:                                               ; preds = %11
  %17 = getelementptr i8, ptr %13, i64 56
  %.val25 = load ptr, ptr %17, align 8, !tbaa !42
  %magicptr30 = ptrtoint ptr %.val25 to i64
  %switch.tableidx = add i64 %magicptr30, -1
  %18 = icmp ult i64 %switch.tableidx, 3
  br i1 %18, label %switch.lookup, label %20

switch.lookup:                                    ; preds = %16
  %switch.cast = trunc nuw i64 %switch.tableidx to i24
  %switch.shiftamt = shl nuw nsw i24 %switch.cast, 3
  %switch.downshift = lshr i24 7876912, %switch.shiftamt
  %switch.masked = trunc i24 %switch.downshift to i8
  %19 = getelementptr inbounds nuw i8, ptr %5, i64 %indvars.iv
  store i8 %switch.masked, ptr %19, align 1, !tbaa !42
  br label %20

20:                                               ; preds = %16, %switch.lookup, %11
  %indvars.iv.next = add nuw nsw i64 %indvars.iv, 1
  %exitcond.not = icmp eq i64 %indvars.iv.next, %wide.trip.count
  br i1 %exitcond.not, label %.critedge.loopexit, label %11, !llvm.loop !48

.critedge.loopexit:                               ; preds = %20
  %21 = zext nneg i32 %.val21 to i64
  br label %.critedge

.critedge:                                        ; preds = %1, %.critedge.loopexit
  %.0.lcssa = phi i64 [ %21, %.critedge.loopexit ], [ 0, %1 ]
  %22 = getelementptr inbounds nuw i8, ptr %5, i64 %.0.lcssa
  store i8 0, ptr %22, align 1, !tbaa !42
  ret ptr %5
}